target datalayout = "e-m:e-p270:32:32-p271:32:32-p272:64:64-i64:64-i128:128-f80:128-n8:16:32:64-S128"
target triple = "x86_64-pc-linux-gnu"

%struct.__va_list_tag = type { i32, i32, ptr, ptr }

@_ZL13gTraceContext = internal global ptr null, align 8
@_ZL14pTraceExitFunc = internal global ptr null, align 8
@_ZL8gExitFmt = internal constant [9 x i8] c"Returns.\00", align 1
@_ZL13gExitFmtValue = internal constant [12 x i8] c"Returns %d.\00", align 1
@_ZL14gExitFmtStatus = internal constant [23 x i8] c"Returns.  Status = %d.\00", align 16
@_ZL19gExitFmtValueStatus = internal constant [26 x i8] c"Returns %d.  Status = %d.\00", align 16
@_ZL17gExitFmtPtrStatus = internal constant [26 x i8] c"Returns %d.  Status = %p.\00", align 16

; Function Attrs: mustprogress uwtable
define void @utrace_exit_77(i32 noundef %0, i32 noundef %1, ...) #0 {
  %3 = alloca i32, align 4
  %4 = alloca i32, align 4
  %5 = alloca [1 x %struct.__va_list_tag], align 16
  %6 = alloca ptr, align 8
  store i32 %0, ptr %3, align 4, !tbaa !3
  store i32 %1, ptr %4, align 4, !tbaa !3
  %7 = load ptr, ptr @_ZL14pTraceExitFunc, align 8, !tbaa !7
  %8 = icmp ne ptr %7, null
  br i1 %8, label %9, label %25

9:                                                ; preds = %2
  call void @llvm.lifetime.start.p0(i64 24, ptr %5) #5
  call void @llvm.lifetime.start.p0(i64 8, ptr %6) #5
  %10 = load i32, ptr %4, align 4, !tbaa !3
  switch i32 %10, label %16 [
    i32 0, label %11
    i32 1, label %12
    i32 16, label %13
    i32 17, label %14
    i32 18, label %15
  ]

11:                                               ; preds = %9
  store ptr @_ZL8gExitFmt, ptr %6, align 8, !tbaa !9
  br label %17

12:                                               ; preds = %9
  store ptr @_ZL13gExitFmtValue, ptr %6, align 8, !tbaa !9
  br label %17

13:                                               ; preds = %9
  store ptr @_ZL14gExitFmtStatus, ptr %6, align 8, !tbaa !9
  br label %17

14:                                               ; preds = %9
  store ptr @_ZL19gExitFmtValueStatus, ptr %6, align 8, !tbaa !9
  br label %17

15:                                               ; preds = %9
  store ptr @_ZL17gExitFmtPtrStatus, ptr %6, align 8, !tbaa !9
  br label %17

16:                                               ; preds = %9
  call void @abort() #6
  unreachable

17:                                               ; preds = %15, %14, %13, %12, %11
  %18 = getelementptr inbounds [1 x %struct.__va_list_tag], ptr %5, i64 0, i64 0
  call void @llvm.va_start.p0(ptr %18)
  %19 = load ptr, ptr @_ZL14pTraceExitFunc, align 8, !tbaa !7
  %20 = load ptr, ptr @_ZL13gTraceContext, align 8, !tbaa !7
  %21 = load i32, ptr %3, align 4, !tbaa !3
  %22 = load ptr, ptr %6, align 8, !tbaa !9
  %23 = getelementptr inbounds [1 x %struct.__va_list_tag], ptr %5, i64 0, i64 0
  call void %19(ptr noundef %20, i32 noundef %21, ptr noundef %22, ptr noundef %23)
  %24 = getelementptr inbounds [1 x %struct.__va_list_tag], ptr %5, i64 0, i64 0
  call void @llvm.va_end.p0(ptr %24)
  call void @llvm.lifetime.end.p0(i64 8, ptr %6) #5
  call void @llvm.lifetime.end.p0(i64 24, ptr %5) #5
  br label %25

25:                                               ; preds = %17, %2
  ret void
}