; Function Attrs: mustprogress uwtable
define void @utrace_exit_77(i32 noundef %0, i32 noundef %1, ...) local_unnamed_addr #0 {
  %3 = alloca [1 x %struct.__va_list_tag], align 16
  %4 = load ptr, ptr @_ZL14pTraceExitFunc, align 8, !tbaa !3
  %.not = icmp eq ptr %4, null
  br i1 %.not, label %13, label %5

5:                                                ; preds = %2
  call void @llvm.lifetime.start.p0(i64 24, ptr nonnull %3) #12
  switch i32 %1, label %10 [
    i32 0, label %11
    i32 1, label %6
    i32 16, label %7
    i32 17, label %8
    i32 18, label %9
  ]

6:                                                ; preds = %5
  br label %11

7:                                                ; preds = %5
  br label %11

8:                                                ; preds = %5
  br label %11

9:                                                ; preds = %5
  br label %11

10:                                               ; preds = %5
  tail call void @abort() #13
  unreachable

11:                                               ; preds = %5, %9, %8, %7, %6
  %.0 = phi ptr [ @_ZL17gExitFmtPtrStatus, %9 ], [ @_ZL19gExitFmtValueStatus, %8 ], [ @_ZL14gExitFmtStatus, %7 ], [ @_ZL13gExitFmtValue, %6 ], [ @_ZL8gExitFmt, %5 ]
  call void @llvm.va_start.p0(ptr nonnull %3)
  %12 = load ptr, ptr @_ZL13gTraceContext, align 8, !tbaa !3
  call void %4(ptr noundef %12, i32 noundef %0, ptr noundef nonnull %.0, ptr noundef nonnull %3)
  call void @llvm.va_end.p0(ptr nonnull %3)
  call void @llvm.lifetime.end.p0(i64 24, ptr nonnull %3) #12
  br label %13

13:                                               ; preds = %11, %2
  ret void
}